target datalayout = "e-m:e-p270:32:32-p271:32:32-p272:64:64-i64:64-i128:128-f80:128-n8:16:32:64-S128"
target triple = "x86_64-pc-linux-gnu"

%struct.cmac_data_st = type { ptr, ptr, %struct.PROV_CIPHER }
%struct.PROV_CIPHER = type { ptr, ptr, ptr }
%struct.ossl_param_st = type { ptr, i32, ptr, i64, i64 }

@.str = private unnamed_addr constant [54 x i8] c"../openssl/providers/implementations/macs/cmac_prov.c\00", align 1
@.str.4 = private unnamed_addr constant [7 x i8] c"cipher\00", align 1
@.str.6 = private unnamed_addr constant [4 x i8] c"key\00", align 1
@__func__.cmac_set_ctx_params = private unnamed_addr constant [20 x i8] c"cmac_set_ctx_params\00", align 1

; Function Attrs: nounwind uwtable
define internal i32 @cmac_setkey(ptr noundef %0, ptr noundef %1, i64 noundef %2) #0 {
  %4 = alloca ptr, align 8
  %5 = alloca ptr, align 8
  %6 = alloca i64, align 8
  %7 = alloca i32, align 4
  %8 = alloca ptr, align 8
  store ptr %0, ptr %4, align 8, !tbaa !7
  store ptr %1, ptr %5, align 8, !tbaa !16
  store i64 %2, ptr %6, align 8, !tbaa !18
  call void @llvm.lifetime.start.p0(i64 4, ptr %7) #4
  call void @llvm.lifetime.start.p0(i64 8, ptr %8) #4
  store ptr null, ptr %8, align 8, !tbaa !20
  %9 = load ptr, ptr %4, align 8, !tbaa !7
  %10 = getelementptr inbounds nuw %struct.cmac_data_st, ptr %9, i32 0, i32 1
  %11 = load ptr, ptr %10, align 8, !tbaa !9
  %12 = load ptr, ptr %5, align 8, !tbaa !16
  %13 = load i64, ptr %6, align 8, !tbaa !18
  %14 = load ptr, ptr %4, align 8, !tbaa !7
  %15 = getelementptr inbounds nuw %struct.cmac_data_st, ptr %14, i32 0, i32 2
  %16 = call ptr @ossl_prov_cipher_cipher(ptr noundef %15)
  %17 = load ptr, ptr %4, align 8, !tbaa !7
  %18 = getelementptr inbounds nuw %struct.cmac_data_st, ptr %17, i32 0, i32 2
  %19 = call ptr @ossl_prov_cipher_engine(ptr noundef %18)
  %20 = load ptr, ptr %8, align 8, !tbaa !20
  %21 = call i32 @ossl_cmac_init(ptr noundef %11, ptr noundef %12, i64 noundef %13, ptr noundef %16, ptr noundef %19, ptr noundef %20)
  store i32 %21, ptr %7, align 4, !tbaa !31
  %22 = load ptr, ptr %4, align 8, !tbaa !7
  %23 = getelementptr inbounds nuw %struct.cmac_data_st, ptr %22, i32 0, i32 2
  call void @ossl_prov_cipher_reset(ptr noundef %23)
  %24 = load i32, ptr %7, align 4, !tbaa !31
  call void @llvm.lifetime.end.p0(i64 8, ptr %8) #4
  call void @llvm.lifetime.end.p0(i64 4, ptr %7) #4
  ret i32 %24
}

; Function Attrs: inlinehint nounwind uwtable
define internal i32 @ossl_param_is_empty(ptr noundef %0) #3 {
  %2 = alloca ptr, align 8
  store ptr %0, ptr %2, align 8, !tbaa !20
  %3 = load ptr, ptr %2, align 8, !tbaa !20
  %4 = icmp eq ptr %3, null
  br i1 %4, label %10, label %5

5:                                                ; preds = %1
  %6 = load ptr, ptr %2, align 8, !tbaa !20
  %7 = getelementptr inbounds nuw %struct.ossl_param_st, ptr %6, i32 0, i32 0
  %8 = load ptr, ptr %7, align 8, !tbaa !34
  %9 = icmp eq ptr %8, null
  br label %10

10:                                               ; preds = %5, %1
  %11 = phi i1 [ true, %1 ], [ %9, %5 ]
  %12 = zext i1 %11 to i32
  ret i32 %12
}

; Function Attrs: nounwind uwtable
define internal i32 @cmac_set_ctx_params(ptr noundef %0, ptr noundef %1) #0 {
  %3 = alloca i32, align 4
  %4 = alloca ptr, align 8
  %5 = alloca ptr, align 8
  %6 = alloca ptr, align 8
  %7 = alloca ptr, align 8
  %8 = alloca ptr, align 8
  %9 = alloca i32, align 4
  store ptr %0, ptr %4, align 8, !tbaa !3
  store ptr %1, ptr %5, align 8, !tbaa !20
  call void @llvm.lifetime.start.p0(i64 8, ptr %6) #4
  %10 = load ptr, ptr %4, align 8, !tbaa !3
  store ptr %10, ptr %6, align 8, !tbaa !7
  call void @llvm.lifetime.start.p0(i64 8, ptr %7) #4
  %11 = load ptr, ptr %6, align 8, !tbaa !7
  %12 = getelementptr inbounds nuw %struct.cmac_data_st, ptr %11, i32 0, i32 0
  %13 = load ptr, ptr %12, align 8, !tbaa !15
  %14 = call ptr @ossl_prov_ctx_get0_libctx(ptr noundef %13)
  store ptr %14, ptr %7, align 8, !tbaa !24
  call void @llvm.lifetime.start.p0(i64 8, ptr %8) #4
  %15 = load ptr, ptr %5, align 8, !tbaa !20
  %16 = call i32 @ossl_param_is_empty(ptr noundef %15)
  %17 = icmp ne i32 %16, 0
  br i1 %17, label %18, label %19

18:                                               ; preds = %2
  store i32 1, ptr %3, align 4
  store i32 1, ptr %9, align 4
  br label %59

19:                                               ; preds = %2
  %20 = load ptr, ptr %5, align 8, !tbaa !20
  %21 = call ptr @OSSL_PARAM_locate_const(ptr noundef %20, ptr noundef @.str.4)
  store ptr %21, ptr %8, align 8, !tbaa !20
  %22 = icmp ne ptr %21, null
  br i1 %22, label %23, label %39

23:                                               ; preds = %19
  %24 = load ptr, ptr %6, align 8, !tbaa !7
  %25 = getelementptr inbounds nuw %struct.cmac_data_st, ptr %24, i32 0, i32 2
  %26 = load ptr, ptr %5, align 8, !tbaa !20
  %27 = load ptr, ptr %7, align 8, !tbaa !24
  %28 = call i32 @ossl_prov_cipher_load_from_params(ptr noundef %25, ptr noundef %26, ptr noundef %27)
  %29 = icmp ne i32 %28, 0
  br i1 %29, label %31, label %30

30:                                               ; preds = %23
  store i32 0, ptr %3, align 4
  store i32 1, ptr %9, align 4
  br label %59

31:                                               ; preds = %23
  %32 = load ptr, ptr %6, align 8, !tbaa !7
  %33 = getelementptr inbounds nuw %struct.cmac_data_st, ptr %32, i32 0, i32 2
  %34 = call ptr @ossl_prov_cipher_cipher(ptr noundef %33)
  %35 = call i32 @EVP_CIPHER_get_mode(ptr noundef %34)
  %36 = icmp ne i32 %35, 2
  br i1 %36, label %37, label %38

37:                                               ; preds = %31
  call void @ERR_new()
  call void @ERR_set_debug(ptr noundef @.str, i32 noundef 267, ptr noundef @__func__.cmac_set_ctx_params)
  call void (i32, i32, ptr, ...) @ERR_set_error(i32 noundef 57, i32 noundef 125, ptr noundef null)
  store i32 0, ptr %3, align 4
  store i32 1, ptr %9, align 4
  br label %59

38:                                               ; preds = %31
  br label %39

39:                                               ; preds = %38, %19
  %40 = load ptr, ptr %5, align 8, !tbaa !20
  %41 = call ptr @OSSL_PARAM_locate_const(ptr noundef %40, ptr noundef @.str.6)
  store ptr %41, ptr %8, align 8, !tbaa !20
  %42 = icmp ne ptr %41, null
  br i1 %42, label %43, label %58

43:                                               ; preds = %39
  %44 = load ptr, ptr %8, align 8, !tbaa !20
  %45 = getelementptr inbounds nuw %struct.ossl_param_st, ptr %44, i32 0, i32 1
  %46 = load i32, ptr %45, align 8, !tbaa !26
  %47 = icmp ne i32 %46, 5
  br i1 %47, label %48, label %49

48:                                               ; preds = %43
  store i32 0, ptr %3, align 4
  store i32 1, ptr %9, align 4
  br label %59

49:                                               ; preds = %43
  %50 = load ptr, ptr %6, align 8, !tbaa !7
  %51 = load ptr, ptr %8, align 8, !tbaa !20
  %52 = getelementptr inbounds nuw %struct.ossl_param_st, ptr %51, i32 0, i32 2
  %53 = load ptr, ptr %52, align 8, !tbaa !29
  %54 = load ptr, ptr %8, align 8, !tbaa !20
  %55 = getelementptr inbounds nuw %struct.ossl_param_st, ptr %54, i32 0, i32 3
  %56 = load i64, ptr %55, align 8, !tbaa !30
  %57 = call i32 @cmac_setkey(ptr noundef %50, ptr noundef %53, i64 noundef %56)
  store i32 %57, ptr %3, align 4
  store i32 1, ptr %9, align 4
  br label %59

58:                                               ; preds = %39
  store i32 1, ptr %3, align 4
  store i32 1, ptr %9, align 4
  br label %59

59:                                               ; preds = %58, %49, %48, %37, %30, %18
  call void @llvm.lifetime.end.p0(i64 8, ptr %8) #4
  call void @llvm.lifetime.end.p0(i64 8, ptr %7) #4
  call void @llvm.lifetime.end.p0(i64 8, ptr %6) #4
  %60 = load i32, ptr %3, align 4
  ret i32 %60
}