; Function Attrs: nounwind uwtable
define internal i32 @cmac_set_ctx_params(ptr noundef %0, ptr noundef %1) #0 {
  %3 = load ptr, ptr %0, align 8, !tbaa !12
  %4 = tail call ptr @ossl_prov_ctx_get0_libctx(ptr noundef %3) #3
  %5 = icmp eq ptr %1, null
  br i1 %5, label %ossl_param_is_empty.exit.thread, label %ossl_param_is_empty.exit

ossl_param_is_empty.exit:                         ; preds = %2
  %6 = load ptr, ptr %1, align 8, !tbaa !13
  %.not = icmp eq ptr %6, null
  br i1 %.not, label %ossl_param_is_empty.exit.thread, label %7

7:                                                ; preds = %ossl_param_is_empty.exit
  %8 = tail call ptr @OSSL_PARAM_locate_const(ptr noundef nonnull %1, ptr noundef nonnull @.str.4) #3
  %.not14 = icmp eq ptr %8, null
  br i1 %.not14, label %16, label %9

9:                                                ; preds = %7
  %10 = getelementptr inbounds nuw i8, ptr %0, i64 16
  %11 = tail call i32 @ossl_prov_cipher_load_from_params(ptr noundef nonnull %10, ptr noundef nonnull %1, ptr noundef %4) #3
  %.not15 = icmp eq i32 %11, 0
  br i1 %.not15, label %ossl_param_is_empty.exit.thread, label %12

12:                                               ; preds = %9
  %13 = tail call ptr @ossl_prov_cipher_cipher(ptr noundef nonnull %10) #3
  %14 = tail call i32 @EVP_CIPHER_get_mode(ptr noundef %13) #3
  %.not16 = icmp eq i32 %14, 2
  br i1 %.not16, label %16, label %15

15:                                               ; preds = %12
  tail call void @ERR_new() #3
  tail call void @ERR_set_debug(ptr noundef nonnull @.str, i32 noundef 267, ptr noundef nonnull @__func__.cmac_set_ctx_params) #3
  tail call void (i32, i32, ptr, ...) @ERR_set_error(i32 noundef 57, i32 noundef 125, ptr noundef null) #3
  br label %ossl_param_is_empty.exit.thread

16:                                               ; preds = %12, %7
  %17 = tail call ptr @OSSL_PARAM_locate_const(ptr noundef nonnull %1, ptr noundef nonnull @.str.6) #3
  %.not17 = icmp eq ptr %17, null
  br i1 %.not17, label %ossl_param_is_empty.exit.thread, label %18

18:                                               ; preds = %16
  %19 = getelementptr inbounds nuw i8, ptr %17, i64 8
  %20 = load i32, ptr %19, align 8, !tbaa !18
  %.not18 = icmp eq i32 %20, 5
  br i1 %.not18, label %21, label %ossl_param_is_empty.exit.thread

21:                                               ; preds = %18
  %22 = getelementptr inbounds nuw i8, ptr %17, i64 16
  %23 = load ptr, ptr %22, align 8, !tbaa !19
  %24 = getelementptr inbounds nuw i8, ptr %17, i64 24
  %25 = load i64, ptr %24, align 8, !tbaa !20
  %26 = getelementptr inbounds nuw i8, ptr %0, i64 8
  %27 = load ptr, ptr %26, align 8, !tbaa !3
  %28 = getelementptr inbounds nuw i8, ptr %0, i64 16
  %29 = tail call ptr @ossl_prov_cipher_cipher(ptr noundef nonnull %28) #3
  %30 = tail call ptr @ossl_prov_cipher_engine(ptr noundef nonnull %28) #3
  %31 = tail call i32 @ossl_cmac_init(ptr noundef %27, ptr noundef %23, i64 noundef %25, ptr noundef %29, ptr noundef %30, ptr noundef null) #3
  tail call void @ossl_prov_cipher_reset(ptr noundef nonnull %28) #3
  br label %ossl_param_is_empty.exit.thread

ossl_param_is_empty.exit.thread:                  ; preds = %2, %16, %18, %9, %ossl_param_is_empty.exit, %21, %15
  %.0 = phi i32 [ 0, %15 ], [ %31, %21 ], [ 1, %ossl_param_is_empty.exit ], [ 0, %9 ], [ 0, %18 ], [ 1, %16 ], [ 1, %2 ]
  ret i32 %.0
}